target datalayout = "e-m:e-p270:32:32-p271:32:32-p272:64:64-i64:64-i128:128-f80:128-n8:16:32:64-S128"
target triple = "x86_64-pc-linux-gnu"

%struct.slurm_conf_t = type { i64, ptr, i16, ptr, ptr, ptr, ptr, ptr, i16, ptr, ptr, ptr, ptr, ptr, ptr, ptr, i16, ptr, ptr, ptr, ptr, i16, ptr, ptr, ptr, i64, ptr, ptr, ptr, ptr, i16, ptr, ptr, i16, i32, ptr, i32, ptr, i32, i32, ptr, ptr, i64, i64, ptr, i16, i16, ptr, i32, i32, ptr, i32, ptr, i32, i16, i16, i16, ptr, i16, i16, ptr, ptr, i32, i16, i16, ptr, i32, i16, ptr, ptr, ptr, ptr, i16, ptr, ptr, ptr, ptr, i32, ptr, ptr, ptr, ptr, i16, i16, ptr, i32, i32, i32, i16, i16, ptr, ptr, i16, ptr, ptr, i32, i32, i32, i32, i32, i64, i32, i32, i16, ptr, ptr, i32, ptr, ptr, ptr, i16, i32, ptr, ptr, i16, ptr, ptr, i32, i16, ptr, ptr, ptr, ptr, i32, i32, i16, i16, i32, ptr, i16, ptr, i32, i32, i32, i32, i32, i32, ptr, i16, ptr, ptr, i32, i16, ptr, i32, i16, i16, ptr, ptr, ptr, i16, ptr, ptr, ptr, ptr, i16, i16, ptr, i16, ptr, i16, ptr, i16, ptr, i16, ptr, ptr, ptr, ptr, i16, ptr, ptr, ptr, i32, ptr, i32, ptr, ptr, i16, ptr, ptr, i32, i16, ptr, ptr, i16, i16, ptr, i16, ptr, ptr, ptr, i32, ptr, i16, i16, ptr, ptr, ptr, ptr, ptr, ptr, ptr, ptr, i16, i32, i16, ptr, ptr, ptr, ptr, i32, ptr, ptr, ptr, i16, ptr, ptr, ptr, i16, ptr, i16, ptr, i16, i16, ptr }

@builtin_interval = internal global i32 30, align 4
@slurm_conf = external global %struct.slurm_conf_t, align 8
@sched_timeout = internal global i32 0, align 4
@.str.4 = private unnamed_addr constant [10 x i8] c"interval=\00", align 1
@.str.5 = private unnamed_addr constant [41 x i8] c"Invalid SchedulerParameters interval: %d\00", align 1
@.str.6 = private unnamed_addr constant [12 x i8] c"max_job_bf=\00", align 1
@max_sched_job_cnt = internal global i32 50, align 4
@.str.7 = private unnamed_addr constant [17 x i8] c"bf_max_job_test=\00", align 1
@.str.8 = private unnamed_addr constant [48 x i8] c"Invalid SchedulerParameters bf_max_job_test: %d\00", align 1

; Function Attrs: inlinehint nounwind willreturn memory(read) uwtable
define available_externally i32 @atoi(ptr noundef nonnull %0) #7 {
  %2 = alloca ptr, align 8
  store ptr %0, ptr %2, align 8
  %3 = load ptr, ptr %2, align 8
  %4 = call i64 @strtol(ptr noundef %3, ptr noundef null, i32 noundef 10) #9
  %5 = trunc i64 %4 to i32
  ret i32 %5
}

; Function Attrs: nounwind uwtable
define internal void @_load_config() #0 {
  %1 = alloca ptr, align 8
  call void @llvm.lifetime.start.p0(i64 8, ptr %1) #9
  %2 = load i16, ptr getelementptr inbounds nuw (%struct.slurm_conf_t, ptr @slurm_conf, i32 0, i32 110), align 8
  %3 = zext i16 %2 to i32
  %4 = sdiv i32 %3, 2
  store i32 %4, ptr @sched_timeout, align 4
  %5 = load i32, ptr @sched_timeout, align 4
  %6 = icmp sgt i32 %5, 1
  br i1 %6, label %7, label %9

7:                                                ; preds = %0
  %8 = load i32, ptr @sched_timeout, align 4
  br label %10

9:                                                ; preds = %0
  br label %10

10:                                               ; preds = %9, %7
  %11 = phi i32 [ %8, %7 ], [ 1, %9 ]
  store i32 %11, ptr @sched_timeout, align 4
  %12 = load i32, ptr @sched_timeout, align 4
  %13 = icmp slt i32 %12, 10
  br i1 %13, label %14, label %16

14:                                               ; preds = %10
  %15 = load i32, ptr @sched_timeout, align 4
  br label %17

16:                                               ; preds = %10
  br label %17

17:                                               ; preds = %16, %14
  %18 = phi i32 [ %15, %14 ], [ 10, %16 ]
  store i32 %18, ptr @sched_timeout, align 4
  %19 = load ptr, ptr getelementptr inbounds nuw (%struct.slurm_conf_t, ptr @slurm_conf, i32 0, i32 163), align 8
  %20 = call ptr @xstrcasestr(ptr noundef %19, ptr noundef @.str.4)
  store ptr %20, ptr %1, align 8
  %21 = icmp ne ptr %20, null
  br i1 %21, label %22, label %26

22:                                               ; preds = %17
  %23 = load ptr, ptr %1, align 8
  %24 = getelementptr inbounds i8, ptr %23, i64 9
  %25 = call i32 @atoi(ptr noundef %24) #12
  store i32 %25, ptr @builtin_interval, align 4
  br label %26

26:                                               ; preds = %22, %17
  %27 = load i32, ptr @builtin_interval, align 4
  %28 = icmp slt i32 %27, 1
  br i1 %28, label %29, label %32

29:                                               ; preds = %26
  %30 = load i32, ptr @builtin_interval, align 4
  %31 = call i32 (ptr, ...) @error(ptr noundef @.str.5, i32 noundef %30)
  store i32 30, ptr @builtin_interval, align 4
  br label %32

32:                                               ; preds = %29, %26
  %33 = load ptr, ptr getelementptr inbounds nuw (%struct.slurm_conf_t, ptr @slurm_conf, i32 0, i32 163), align 8
  %34 = call ptr @xstrcasestr(ptr noundef %33, ptr noundef @.str.6)
  store ptr %34, ptr %1, align 8
  %35 = icmp ne ptr %34, null
  br i1 %35, label %36, label %40

36:                                               ; preds = %32
  %37 = load ptr, ptr %1, align 8
  %38 = getelementptr inbounds i8, ptr %37, i64 11
  %39 = call i32 @atoi(ptr noundef %38) #12
  store i32 %39, ptr @max_sched_job_cnt, align 4
  br label %40

40:                                               ; preds = %36, %32
  %41 = load ptr, ptr getelementptr inbounds nuw (%struct.slurm_conf_t, ptr @slurm_conf, i32 0, i32 163), align 8
  %42 = call ptr @xstrcasestr(ptr noundef %41, ptr noundef @.str.7)
  store ptr %42, ptr %1, align 8
  %43 = icmp ne ptr %42, null
  br i1 %43, label %44, label %48

44:                                               ; preds = %40
  %45 = load ptr, ptr %1, align 8
  %46 = getelementptr inbounds i8, ptr %45, i64 16
  %47 = call i32 @atoi(ptr noundef %46) #12
  store i32 %47, ptr @max_sched_job_cnt, align 4
  br label %48

48:                                               ; preds = %44, %40
  %49 = load i32, ptr @max_sched_job_cnt, align 4
  %50 = icmp slt i32 %49, 1
  br i1 %50, label %51, label %54

51:                                               ; preds = %48
  %52 = load i32, ptr @max_sched_job_cnt, align 4
  %53 = call i32 (ptr, ...) @error(ptr noundef @.str.8, i32 noundef %52)
  store i32 50, ptr @max_sched_job_cnt, align 4
  br label %54

54:                                               ; preds = %51, %48
  call void @llvm.lifetime.end.p0(i64 8, ptr %1) #9
  ret void
}