; Function Attrs: nounwind uwtable
define internal fastcc void @_load_config() unnamed_addr #0 {
  %1 = load i16, ptr getelementptr inbounds nuw (i8, ptr @slurm_conf, i64 744), align 8
  %2 = lshr i16 %1, 1
  %3 = tail call i16 @llvm.umax.i16(i16 %2, i16 1)
  %4 = tail call i16 @llvm.umin.i16(i16 %3, i16 10)
  %5 = zext nneg i16 %4 to i32
  store i32 %5, ptr @sched_timeout, align 4
  %6 = load ptr, ptr getelementptr inbounds nuw (i8, ptr @slurm_conf, i64 1072), align 8
  %7 = tail call ptr @xstrcasestr(ptr noundef %6, ptr noundef nonnull @.str.4) #11
  %.not = icmp eq ptr %7, null
  br i1 %.not, label %thread-pre-split, label %8

8:                                                ; preds = %0
  %9 = getelementptr inbounds nuw i8, ptr %7, i64 9
  %10 = tail call i64 @strtol(ptr noundef nonnull captures(none) %9, ptr noundef null, i32 noundef 10) #11
  %11 = trunc i64 %10 to i32
  store i32 %11, ptr @builtin_interval, align 4
  br label %12

thread-pre-split:                                 ; preds = %0
  %.pr = load i32, ptr @builtin_interval, align 4
  br label %12

12:                                               ; preds = %thread-pre-split, %8
  %13 = phi i32 [ %.pr, %thread-pre-split ], [ %11, %8 ]
  %14 = icmp slt i32 %13, 1
  br i1 %14, label %15, label %17

15:                                               ; preds = %12
  %16 = tail call i32 (ptr, ...) @error(ptr noundef nonnull @.str.5, i32 noundef %13) #11
  store i32 30, ptr @builtin_interval, align 4
  br label %17

17:                                               ; preds = %15, %12
  %18 = load ptr, ptr getelementptr inbounds nuw (i8, ptr @slurm_conf, i64 1072), align 8
  %19 = tail call ptr @xstrcasestr(ptr noundef %18, ptr noundef nonnull @.str.6) #11
  %.not7 = icmp eq ptr %19, null
  br i1 %.not7, label %24, label %20

20:                                               ; preds = %17
  %21 = getelementptr inbounds nuw i8, ptr %19, i64 11
  %22 = tail call i64 @strtol(ptr noundef nonnull captures(none) %21, ptr noundef null, i32 noundef 10) #11
  %23 = trunc i64 %22 to i32
  store i32 %23, ptr @max_sched_job_cnt, align 4
  br label %24

24:                                               ; preds = %20, %17
  %25 = load ptr, ptr getelementptr inbounds nuw (i8, ptr @slurm_conf, i64 1072), align 8
  %26 = tail call ptr @xstrcasestr(ptr noundef %25, ptr noundef nonnull @.str.7) #11
  %.not8 = icmp eq ptr %26, null
  br i1 %.not8, label %thread-pre-split9, label %27

27:                                               ; preds = %24
  %28 = getelementptr inbounds nuw i8, ptr %26, i64 16
  %29 = tail call i64 @strtol(ptr noundef nonnull captures(none) %28, ptr noundef null, i32 noundef 10) #11
  %30 = trunc i64 %29 to i32
  store i32 %30, ptr @max_sched_job_cnt, align 4
  br label %31

thread-pre-split9:                                ; preds = %24
  %.pr10 = load i32, ptr @max_sched_job_cnt, align 4
  br label %31

31:                                               ; preds = %thread-pre-split9, %27
  %32 = phi i32 [ %.pr10, %thread-pre-split9 ], [ %30, %27 ]
  %33 = icmp slt i32 %32, 1
  br i1 %33, label %34, label %36

34:                                               ; preds = %31
  %35 = tail call i32 (ptr, ...) @error(ptr noundef nonnull @.str.8, i32 noundef %32) #11
  store i32 50, ptr @max_sched_job_cnt, align 4
  br label %36

36:                                               ; preds = %34, %31
  ret void
}